target datalayout = "e-m:e-p270:32:32-p271:32:32-p272:64:64-i64:64-i128:128-f80:128-n8:16:32:64-S128"
target triple = "x86_64-pc-linux-gnu"

%"class.std::vector.21" = type { %"struct.std::_Vector_base.22" }
%"struct.std::_Vector_base.22" = type { %"struct.std::_Vector_base<const Luau::Type *, std::allocator<const Luau::Type *>>::_Vector_impl" }
%"struct.std::_Vector_base<const Luau::Type *, std::allocator<const Luau::Type *>>::_Vector_impl" = type { %"struct.std::_Vector_base<const Luau::Type *, std::allocator<const Luau::Type *>>::_Vector_impl_data" }
%"struct.std::_Vector_base<const Luau::Type *, std::allocator<const Luau::Type *>>::_Vector_impl_data" = type { ptr, ptr, ptr }
%"class.std::vector.26" = type { %"struct.std::_Vector_base.27" }
%"struct.std::_Vector_base.27" = type { %"struct.std::_Vector_base<const Luau::TypePackVar *, std::allocator<const Luau::TypePackVar *>>::_Vector_impl" }
%"struct.std::_Vector_base<const Luau::TypePackVar *, std::allocator<const Luau::TypePackVar *>>::_Vector_impl" = type { %"struct.std::_Vector_base<const Luau::TypePackVar *, std::allocator<const Luau::TypePackVar *>>::_Vector_impl_data" }
%"struct.std::_Vector_base<const Luau::TypePackVar *, std::allocator<const Luau::TypePackVar *>>::_Vector_impl_data" = type { ptr, ptr, ptr }
%"struct.Luau::NotNull" = type { ptr }
%"struct.Luau::Location" = type { %"struct.Luau::Position", %"struct.Luau::Position" }
%"struct.Luau::Position" = type { i32, i32 }
%"struct.std::_Vector_base.91" = type { %"struct.std::_Vector_base<Luau::TypeError, std::allocator<Luau::TypeError>>::_Vector_impl" }
%"struct.std::_Vector_base<Luau::TypeError, std::allocator<Luau::TypeError>>::_Vector_impl" = type { %"struct.std::_Vector_base<Luau::TypeError, std::allocator<Luau::TypeError>>::_Vector_impl_data" }
%"struct.std::_Vector_base<Luau::TypeError, std::allocator<Luau::TypeError>>::_Vector_impl_data" = type { ptr, ptr, ptr }
%"struct.Luau::Unifier" = type <{ ptr, %"struct.Luau::NotNull", %"struct.Luau::NotNull.97", %"struct.Luau::NotNull.98", %"struct.Luau::TxnLog", i8, [7 x i8], %"class.std::vector.90", %"struct.Luau::Location", i32, i8, i8, [2 x i8], i32, i8, [3 x i8], ptr, %"class.std::vector.21", %"class.std::vector.26", %"class.std::optional.99", i8, [7 x i8] }>
%"struct.Luau::NotNull.97" = type { ptr }
%"struct.Luau::NotNull.98" = type { ptr }
%"struct.Luau::TxnLog" = type { %"class.Luau::DenseHashMap", %"class.Luau::DenseHashMap.2", ptr, %"class.std::vector", i8, i8, ptr }
%"class.Luau::DenseHashMap" = type { %"class.Luau::detail::DenseHashTable.0" }
%"class.Luau::detail::DenseHashTable.0" = type <{ ptr, i64, i64, ptr, [8 x i8] }>
%"class.Luau::DenseHashMap.2" = type { %"class.Luau::detail::DenseHashTable.3" }
%"class.Luau::detail::DenseHashTable.3" = type <{ ptr, i64, i64, ptr, [8 x i8] }>
%"class.std::vector" = type { %"struct.std::_Vector_base" }
%"struct.std::_Vector_base" = type { %"struct.std::_Vector_base<std::pair<const void *, const void *>, std::allocator<std::pair<const void *, const void *>>>::_Vector_impl" }
%"struct.std::_Vector_base<std::pair<const void *, const void *>, std::allocator<std::pair<const void *, const void *>>>::_Vector_impl" = type { %"struct.std::_Vector_base<std::pair<const void *, const void *>, std::allocator<std::pair<const void *, const void *>>>::_Vector_impl_data" }
%"struct.std::_Vector_base<std::pair<const void *, const void *>, std::allocator<std::pair<const void *, const void *>>>::_Vector_impl_data" = type { ptr, ptr, ptr }
%"class.std::vector.90" = type { %"struct.std::_Vector_base.91" }
%"class.std::optional.99" = type { %"struct.std::_Optional_base.100" }
%"struct.std::_Optional_base.100" = type { %"struct.std::_Optional_payload.102" }
%"struct.std::_Optional_payload.102" = type { %"struct.std::_Optional_payload_base.base.104", [3 x i8] }
%"struct.std::_Optional_payload_base.base.104" = type <{ %"union.std::_Optional_payload_base<int>::_Storage", i8 }>
%"union.std::_Optional_payload_base<int>::_Storage" = type { i32 }

; Function Attrs: mustprogress noinline uwtable
define dso_local void @_ZN4Luau7Unifier11reportErrorENS_8LocationENS_7VariantIJNS_12TypeMismatchENS_13UnknownSymbolENS_15UnknownPropertyENS_9NotATableENS_17CannotExtendTableENS_24OnlyTablesCanHaveMethodsENS_23DuplicateTypeDefinitionENS_13CountMismatchENS_23FunctionDoesNotTakeSelfENS_20FunctionRequiresSelfENS_17OccursCheckFailedENS_14UnknownRequireENS_30IncorrectGenericParameterCountENS_11SyntaxErrorENS_14CodeTooComplexENS_21UnificationTooComplexENS_27UnknownPropButFoundLikePropENS_12GenericErrorENS_13InternalErrorENS_32ConstraintSolvingIncompleteErrorENS_21CannotCallNonFunctionENS_16ExtraInformationENS_17DeprecatedApiUsedENS_25ModuleHasCyclicDependencyENS_14IllegalRequireENS_29FunctionExitsWithoutReturningENS_25DuplicateGenericParameterENS_19CannotAssignToNeverENS_26CannotInferBinaryOperationENS_17MissingPropertiesENS_27SwappedGenericTypeParameterENS_19OptionalValueAccessENS_20MissingUnionPropertyENS_17TypesAreUnrelatedENS_23NormalizationTooComplexENS_16TypePackMismatchENS_36DynamicPropertyLookupOnClassesUnsafeENS_23UninhabitedTypeFunctionENS_27UninhabitedTypePackFunctionENS_17WhereClauseNeededENS_21PackWhereClauseNeededENS_24CheckedFunctionCallErrorENS_32NonStrictFunctionDefinitionErrorENS_23PropertyAccessViolationENS_28CheckedFunctionIncorrectArgsENS_25UnexpectedTypeInSubtypingENS_29UnexpectedTypePackInSubtypingENS_37ExplicitFunctionAnnotationRecommendedENS_28UserDefinedTypeFunctionErrorEEEE(ptr noundef nonnull align 8 dereferenceable(289) %0, i64 %1, i64 %2, ptr noundef %3) #8 align 2 {
  %5 = alloca %"struct.Luau::Location", align 4
  %6 = alloca ptr, align 8
  %7 = alloca ptr, align 8
  %8 = getelementptr inbounds nuw { i64, i64 }, ptr %5, i32 0, i32 0
  store i64 %1, ptr %8, align 4
  %9 = getelementptr inbounds nuw { i64, i64 }, ptr %5, i32 0, i32 1
  store i64 %2, ptr %9, align 4
  store ptr %0, ptr %6, align 8, !tbaa !157
  store ptr %3, ptr %7, align 8, !tbaa !290
  %10 = load ptr, ptr %6, align 8
  %11 = getelementptr inbounds nuw %"struct.Luau::Unifier", ptr %10, i32 0, i32 7
  %12 = call noundef nonnull align 8 dereferenceable(160) ptr @_ZNSt6vectorIN4Luau9TypeErrorESaIS1_EE12emplace_backIJNS0_8LocationENS0_7VariantIJNS0_12TypeMismatchENS0_13UnknownSymbolENS0_15UnknownPropertyENS0_9NotATableENS0_17CannotExtendTableENS0_24OnlyTablesCanHaveMethodsENS0_23DuplicateTypeDefinitionENS0_13CountMismatchENS0_23FunctionDoesNotTakeSelfENS0_20FunctionRequiresSelfENS0_17OccursCheckFailedENS0_14UnknownRequireENS0_30IncorrectGenericParameterCountENS0_11SyntaxErrorENS0_14CodeTooComplexENS0_21UnificationTooComplexENS0_27UnknownPropButFoundLikePropENS0_12GenericErrorENS0_13InternalErrorENS0_32ConstraintSolvingIncompleteErrorENS0_21CannotCallNonFunctionENS0_16ExtraInformationENS0_17DeprecatedApiUsedENS0_25ModuleHasCyclicDependencyENS0_14IllegalRequireENS0_29FunctionExitsWithoutReturningENS0_25DuplicateGenericParameterENS0_19CannotAssignToNeverENS0_26CannotInferBinaryOperationENS0_17MissingPropertiesENS0_27SwappedGenericTypeParameterENS0_19OptionalValueAccessENS0_20MissingUnionPropertyENS0_17TypesAreUnrelatedENS0_23NormalizationTooComplexENS0_16TypePackMismatchENS0_36DynamicPropertyLookupOnClassesUnsafeENS0_23UninhabitedTypeFunctionENS0_27UninhabitedTypePackFunctionENS0_17WhereClauseNeededENS0_21PackWhereClauseNeededENS0_24CheckedFunctionCallErrorENS0_32NonStrictFunctionDefinitionErrorENS0_23PropertyAccessViolationENS0_28CheckedFunctionIncorrectArgsENS0_25UnexpectedTypeInSubtypingENS0_29UnexpectedTypePackInSubtypingENS0_37ExplicitFunctionAnnotationRecommendedENS0_28UserDefinedTypeFunctionErrorEEEEEEERS1_DpOT_(ptr noundef nonnull align 8 dereferenceable(24) %11, ptr noundef nonnull align 4 dereferenceable(16) %5, ptr noundef nonnull align 8 dereferenceable(112) %3)
  %13 = getelementptr inbounds nuw %"struct.Luau::Unifier", ptr %10, i32 0, i32 5
  store i8 1, ptr %13, align 8, !tbaa !222
  ret void
}