; Function Attrs: mustprogress noinline uwtable
define dso_local void @_ZN4Luau7Unifier11reportErrorENS_8LocationENS_7VariantIJNS_12TypeMismatchENS_13UnknownSymbolENS_15UnknownPropertyENS_9NotATableENS_17CannotExtendTableENS_24OnlyTablesCanHaveMethodsENS_23DuplicateTypeDefinitionENS_13CountMismatchENS_23FunctionDoesNotTakeSelfENS_20FunctionRequiresSelfENS_17OccursCheckFailedENS_14UnknownRequireENS_30IncorrectGenericParameterCountENS_11SyntaxErrorENS_14CodeTooComplexENS_21UnificationTooComplexENS_27UnknownPropButFoundLikePropENS_12GenericErrorENS_13InternalErrorENS_32ConstraintSolvingIncompleteErrorENS_21CannotCallNonFunctionENS_16ExtraInformationENS_17DeprecatedApiUsedENS_25ModuleHasCyclicDependencyENS_14IllegalRequireENS_29FunctionExitsWithoutReturningENS_25DuplicateGenericParameterENS_19CannotAssignToNeverENS_26CannotInferBinaryOperationENS_17MissingPropertiesENS_27SwappedGenericTypeParameterENS_19OptionalValueAccessENS_20MissingUnionPropertyENS_17TypesAreUnrelatedENS_23NormalizationTooComplexENS_16TypePackMismatchENS_36DynamicPropertyLookupOnClassesUnsafeENS_23UninhabitedTypeFunctionENS_27UninhabitedTypePackFunctionENS_17WhereClauseNeededENS_21PackWhereClauseNeededENS_24CheckedFunctionCallErrorENS_32NonStrictFunctionDefinitionErrorENS_23PropertyAccessViolationENS_28CheckedFunctionIncorrectArgsENS_25UnexpectedTypeInSubtypingENS_29UnexpectedTypePackInSubtypingENS_37ExplicitFunctionAnnotationRecommendedENS_28UserDefinedTypeFunctionErrorEEEE(ptr noundef nonnull align 8 dereferenceable(289) %0, i64 %1, i64 %2, ptr noundef nonnull %3) local_unnamed_addr #10 align 2 {
  %5 = alloca %"struct.Luau::Location", align 8
  store i64 %1, ptr %5, align 8
  %6 = getelementptr inbounds nuw i8, ptr %5, i64 8
  store i64 %2, ptr %6, align 8
  %7 = getelementptr inbounds nuw i8, ptr %0, i64 168
  %8 = call noundef nonnull align 8 dereferenceable(160) ptr @_ZNSt6vectorIN4Luau9TypeErrorESaIS1_EE12emplace_backIJNS0_8LocationENS0_7VariantIJNS0_12TypeMismatchENS0_13UnknownSymbolENS0_15UnknownPropertyENS0_9NotATableENS0_17CannotExtendTableENS0_24OnlyTablesCanHaveMethodsENS0_23DuplicateTypeDefinitionENS0_13CountMismatchENS0_23FunctionDoesNotTakeSelfENS0_20FunctionRequiresSelfENS0_17OccursCheckFailedENS0_14UnknownRequireENS0_30IncorrectGenericParameterCountENS0_11SyntaxErrorENS0_14CodeTooComplexENS0_21UnificationTooComplexENS0_27UnknownPropButFoundLikePropENS0_12GenericErrorENS0_13InternalErrorENS0_32ConstraintSolvingIncompleteErrorENS0_21CannotCallNonFunctionENS0_16ExtraInformationENS0_17DeprecatedApiUsedENS0_25ModuleHasCyclicDependencyENS0_14IllegalRequireENS0_29FunctionExitsWithoutReturningENS0_25DuplicateGenericParameterENS0_19CannotAssignToNeverENS0_26CannotInferBinaryOperationENS0_17MissingPropertiesENS0_27SwappedGenericTypeParameterENS0_19OptionalValueAccessENS0_20MissingUnionPropertyENS0_17TypesAreUnrelatedENS0_23NormalizationTooComplexENS0_16TypePackMismatchENS0_36DynamicPropertyLookupOnClassesUnsafeENS0_23UninhabitedTypeFunctionENS0_27UninhabitedTypePackFunctionENS0_17WhereClauseNeededENS0_21PackWhereClauseNeededENS0_24CheckedFunctionCallErrorENS0_32NonStrictFunctionDefinitionErrorENS0_23PropertyAccessViolationENS0_28CheckedFunctionIncorrectArgsENS0_25UnexpectedTypeInSubtypingENS0_29UnexpectedTypePackInSubtypingENS0_37ExplicitFunctionAnnotationRecommendedENS0_28UserDefinedTypeFunctionErrorEEEEEEERS1_DpOT_(ptr noundef nonnull align 8 dereferenceable(24) %7, ptr noundef nonnull align 4 dereferenceable(16) %5, ptr noundef nonnull align 8 dereferenceable(112) %3)
  %9 = getelementptr inbounds nuw i8, ptr %0, i64 160
  store i8 1, ptr %9, align 8, !tbaa !174
  ret void
}